; Function Attrs: mustprogress uwtable
define void @_ZN7testing8internal3LogENS0_11LogSeverityERKNSt7__cxx1112basic_stringIcSt11char_traitsIcESaIcEEEi(i32 noundef %severity, ptr noundef nonnull align 8 dereferenceable(32) %message, i32 noundef %stack_frames_to_skip) local_unnamed_addr #3 personality ptr @__gxx_personality_v0 {
entry:
  %ref.tmp = alloca %"class.std::reverse_iterator", align 8
  %ref.tmp26 = alloca %"class.std::__cxx11::basic_string", align 8
  %call.i.i = tail call noundef i32 @_ZNKSt7__cxx1112basic_stringIcSt11char_traitsIcESaIcEE7compareEPKc(ptr noundef nonnull align 8 dereferenceable(32) @_ZN7testing19FLAGS_gmock_verboseB5cxx11E, ptr noundef nonnull @_ZN7testing8internalL14kInfoVerbosityE) #26
  %cmp.i.i = icmp eq i32 %call.i.i, 0
  br i1 %cmp.i.i, label %if.end, label %_ZN7testing8internal12LogIsVisibleENS0_11LogSeverityE.exit

_ZN7testing8internal12LogIsVisibleENS0_11LogSeverityE.exit: ; preds = %entry
  %call.i1.i = tail call noundef i32 @_ZNKSt7__cxx1112basic_stringIcSt11char_traitsIcESaIcEE7compareEPKc(ptr noundef nonnull align 8 dereferenceable(32) @_ZN7testing19FLAGS_gmock_verboseB5cxx11E, ptr noundef nonnull @_ZN7testing8internalL15kErrorVerbosityE) #26
  %cmp.i2.i = icmp ne i32 %call.i1.i, 0
  %cmp.i = icmp eq i32 %severity, 1
  %spec.select.i = and i1 %cmp.i, %cmp.i2.i
  br i1 %spec.select.i, label %if.end.thread, label %return

if.end.thread:                                    ; preds = %_ZN7testing8internal12LogIsVisibleENS0_11LogSeverityE.exit
  tail call void @_ZN7testing8internal9MutexBase4LockEv(ptr noundef nonnull align 8 dereferenceable(56) @_ZN7testing8internalL11g_log_mutexE)
  br label %if.then1

if.end:                                           ; preds = %entry
  tail call void @_ZN7testing8internal9MutexBase4LockEv(ptr noundef nonnull align 8 dereferenceable(56) @_ZN7testing8internalL11g_log_mutexE)
  %cmp = icmp eq i32 %severity, 1
  br i1 %cmp, label %if.then1, label %if.end3

if.then1:                                         ; preds = %if.end.thread, %if.end
  %call2 = invoke noundef nonnull align 8 dereferenceable(8) ptr @_ZStlsISt11char_traitsIcEERSt13basic_ostreamIcT_ES5_PKc(ptr noundef nonnull align 8 dereferenceable(8) @_ZSt4cout, ptr noundef nonnull @.str.3)
          to label %if.end3 unwind label %lpad

lpad:                                             ; preds = %if.end33, %invoke.cont27, %invoke.cont24, %if.end23, %if.then20, %if.end10, %if.then7, %if.then1
  %0 = landingpad { ptr, i32 }
          cleanup
  br label %ehcleanup

if.end3:                                          ; preds = %if.then1, %if.end
  %call4 = tail call noundef zeroext i1 @_ZNKSt7__cxx1112basic_stringIcSt11char_traitsIcESaIcEE5emptyEv(ptr noundef nonnull align 8 dereferenceable(32) %message) #26
  br i1 %call4, label %if.then7, label %lor.lhs.false

lor.lhs.false:                                    ; preds = %if.end3
  %call5 = tail call noundef nonnull align 1 dereferenceable(1) ptr @_ZNKSt7__cxx1112basic_stringIcSt11char_traitsIcESaIcEEixEm(ptr noundef nonnull align 8 dereferenceable(32) %message, i64 noundef 0) #26
  %1 = load i8, ptr %call5, align 1
  %cmp6.not = icmp eq i8 %1, 10
  br i1 %cmp6.not, label %if.end10, label %if.then7

if.then7:                                         ; preds = %lor.lhs.false, %if.end3
  %call9 = invoke noundef nonnull align 8 dereferenceable(8) ptr @_ZStlsISt11char_traitsIcEERSt13basic_ostreamIcT_ES5_PKc(ptr noundef nonnull align 8 dereferenceable(8) @_ZSt4cout, ptr noundef nonnull @.str.4)
          to label %if.end10 unwind label %lpad

if.end10:                                         ; preds = %if.then7, %lor.lhs.false
  %call12 = invoke noundef nonnull align 8 dereferenceable(8) ptr @_ZStlsIcSt11char_traitsIcESaIcEERSt13basic_ostreamIT_T0_ES7_RKNSt7__cxx1112basic_stringIS4_S5_T1_EE(ptr noundef nonnull align 8 dereferenceable(8) @_ZSt4cout, ptr noundef nonnull align 8 dereferenceable(32) %message)
          to label %invoke.cont11 unwind label %lpad

invoke.cont11:                                    ; preds = %if.end10
  %cmp13 = icmp sgt i32 %stack_frames_to_skip, -1
  br i1 %cmp13, label %if.then14, label %if.end33

if.then14:                                        ; preds = %invoke.cont11
  %call15 = tail call noundef zeroext i1 @_ZNKSt7__cxx1112basic_stringIcSt11char_traitsIcESaIcEE5emptyEv(ptr noundef nonnull align 8 dereferenceable(32) %message) #26
  br i1 %call15, label %if.end23, label %land.rhs

land.rhs:                                         ; preds = %if.then14
  call void @_ZNKSt7__cxx1112basic_stringIcSt11char_traitsIcESaIcEE6rbeginEv(ptr nonnull sret(%"class.std::reverse_iterator") align 8 %ref.tmp, ptr noundef nonnull align 8 dereferenceable(32) %message) #26
  %2 = load i64, ptr %ref.tmp, align 8
  %3 = inttoptr i64 %2 to ptr
  %incdec.ptr.i.i = getelementptr inbounds i8, ptr %3, i64 -1
  %4 = load i8, ptr %incdec.ptr.i.i, align 1
  %cmp19.not = icmp eq i8 %4, 10
  br i1 %cmp19.not, label %if.end23, label %if.then20

if.then20:                                        ; preds = %land.rhs
  %call22 = invoke noundef nonnull align 8 dereferenceable(8) ptr @_ZStlsISt11char_traitsIcEERSt13basic_ostreamIcT_ES5_PKc(ptr noundef nonnull align 8 dereferenceable(8) @_ZSt4cout, ptr noundef nonnull @.str.4)
          to label %if.end23 unwind label %lpad

if.end23:                                         ; preds = %if.then14, %if.then20, %land.rhs
  %call25 = invoke noundef nonnull align 8 dereferenceable(8) ptr @_ZStlsISt11char_traitsIcEERSt13basic_ostreamIcT_ES5_PKc(ptr noundef nonnull align 8 dereferenceable(8) @_ZSt4cout, ptr noundef nonnull @.str.5)
          to label %invoke.cont24 unwind label %lpad

invoke.cont24:                                    ; preds = %if.end23
  %call28 = invoke noundef ptr @_ZN7testing8UnitTest11GetInstanceEv()
          to label %invoke.cont27 unwind label %lpad

invoke.cont27:                                    ; preds = %invoke.cont24
  invoke void @_ZN7testing8internal31GetCurrentOsStackTraceExceptTopB5cxx11EPNS_8UnitTestEi(ptr nonnull sret(%"class.std::__cxx11::basic_string") align 8 %ref.tmp26, ptr noundef %call28, i32 noundef 0)
          to label %invoke.cont29 unwind label %lpad

invoke.cont29:                                    ; preds = %invoke.cont27
  %call32 = invoke noundef nonnull align 8 dereferenceable(8) ptr @_ZStlsIcSt11char_traitsIcESaIcEERSt13basic_ostreamIT_T0_ES7_RKNSt7__cxx1112basic_stringIS4_S5_T1_EE(ptr noundef nonnull align 8 dereferenceable(8) %call25, ptr noundef nonnull align 8 dereferenceable(32) %ref.tmp26)
          to label %invoke.cont31 unwind label %lpad30

invoke.cont31:                                    ; preds = %invoke.cont29
  call void @_ZNSt7__cxx1112basic_stringIcSt11char_traitsIcESaIcEED1Ev(ptr noundef nonnull align 8 dereferenceable(32) %ref.tmp26) #26
  br label %if.end33

lpad30:                                           ; preds = %invoke.cont29
  %5 = landingpad { ptr, i32 }
          cleanup
  call void @_ZNSt7__cxx1112basic_stringIcSt11char_traitsIcESaIcEED1Ev(ptr noundef nonnull align 8 dereferenceable(32) %ref.tmp26) #26
  br label %ehcleanup

if.end33:                                         ; preds = %invoke.cont31, %invoke.cont11
  %call35 = invoke noundef nonnull align 8 dereferenceable(8) ptr @_ZNSolsEPFRSoS_E(ptr noundef nonnull align 8 dereferenceable(8) @_ZSt4cout, ptr noundef nonnull @_ZSt5flushIcSt11char_traitsIcEERSt13basic_ostreamIT_T0_ES6_)
          to label %invoke.cont34 unwind label %lpad

invoke.cont34:                                    ; preds = %if.end33
  invoke void @_ZN7testing8internal9MutexBase6UnlockEv(ptr noundef nonnull align 8 dereferenceable(56) @_ZN7testing8internalL11g_log_mutexE)
          to label %return unwind label %terminate.lpad.i

terminate.lpad.i:                                 ; preds = %invoke.cont34
  %6 = landingpad { ptr, i32 }
          catch ptr null
  %7 = extractvalue { ptr, i32 } %6, 0
  call void @__clang_call_terminate(ptr %7) #30
  unreachable

return:                                           ; preds = %invoke.cont34, %_ZN7testing8internal12LogIsVisibleENS0_11LogSeverityE.exit
  ret void

ehcleanup:                                        ; preds = %lpad30, %lpad
  %.pn = phi { ptr, i32 } [ %0, %lpad ], [ %5, %lpad30 ]
  invoke void @_ZN7testing8internal9MutexBase6UnlockEv(ptr noundef nonnull align 8 dereferenceable(56) @_ZN7testing8internalL11g_log_mutexE)
          to label %_ZN7testing8internal14GTestMutexLockD2Ev.exit8 unwind label %terminate.lpad.i7

terminate.lpad.i7:                                ; preds = %ehcleanup
  %8 = landingpad { ptr, i32 }
          catch ptr null
  %9 = extractvalue { ptr, i32 } %8, 0
  call void @__clang_call_terminate(ptr %9) #30
  unreachable

_ZN7testing8internal14GTestMutexLockD2Ev.exit8:   ; preds = %ehcleanup
  resume { ptr, i32 } %.pn
}